target datalayout = "e-m:e-p270:32:32-p271:32:32-p272:64:64-i64:64-i128:128-f80:128-n8:16:32:64-S128"
target triple = "x86_64-pc-linux-gnu"

%"class.llvm::DominatorTreeBase" = type <{ %"class.llvm::SmallVector", %"class.llvm::SmallVector.0", [8 x i8], ptr, ptr, i8, [3 x i8], i32, i32, [4 x i8] }>
%"class.llvm::SmallVector" = type { %"class.llvm::SmallVectorImpl", %"struct.llvm::SmallVectorStorage" }
%"class.llvm::SmallVectorImpl" = type { %"class.llvm::SmallVectorTemplateBase" }
%"class.llvm::SmallVectorTemplateBase" = type { %"class.llvm::SmallVectorTemplateCommon" }
%"class.llvm::SmallVectorTemplateCommon" = type { %"class.llvm::SmallVectorBase" }
%"class.llvm::SmallVectorBase" = type { ptr, i32, i32 }
%"struct.llvm::SmallVectorStorage" = type { [32 x i8] }
%"class.llvm::SmallVector.0" = type { %"class.llvm::SmallVectorImpl.1", %"struct.llvm::SmallVectorStorage.4" }
%"class.llvm::SmallVectorImpl.1" = type { %"class.llvm::SmallVectorTemplateBase.2" }
%"class.llvm::SmallVectorTemplateBase.2" = type { %"class.llvm::SmallVectorTemplateCommon.3" }
%"class.llvm::SmallVectorTemplateCommon.3" = type { %"class.llvm::SmallVectorBase" }
%"struct.llvm::SmallVectorStorage.4" = type { [48 x i8] }
%"class.llvm::MachinePostDominatorTree" = type { %"class.llvm::DominatorTreeBase.base", [4 x i8] }
%"class.llvm::DominatorTreeBase.base" = type <{ %"class.llvm::SmallVector", %"class.llvm::SmallVector.0", [8 x i8], ptr, ptr, i8, [3 x i8], i32, i32 }>
%"class.llvm::MachineFunctionProperties" = type { %"class.std::bitset" }
%"class.std::bitset" = type { %"struct.std::_Base_bitset" }
%"struct.std::_Base_bitset" = type { i64 }
%"class.llvm::ilist_node_impl" = type { %"class.llvm::ilist_node_base" }
%"class.llvm::ilist_node_base" = type { %"class.llvm::ilist_detail::node_base_prevnext" }
%"class.llvm::ilist_detail::node_base_prevnext" = type { ptr, ptr }
%"struct.llvm::Align" = type { i8 }
%"class.llvm::MachineFunction" = type <{ ptr, ptr, ptr, ptr, ptr, ptr, ptr, ptr, ptr, ptr, ptr, ptr, %"class.std::vector.58", i32, [4 x i8], %"class.llvm::BumpPtrAllocatorImpl", %"class.llvm::Recycler", %"class.llvm::ArrayRecycler", %"class.llvm::Recycler.79", %"class.llvm::iplist.80", i32, %"struct.llvm::Align", i8, i8, i8, %"class.llvm::MachineFunctionProperties", %"class.std::unique_ptr.87", %"class.std::vector.95", %"class.std::vector.100", %"class.std::vector.100", %"class.std::vector.105", %"class.llvm::DenseMap", %"class.llvm::DenseMap.111", %"class.llvm::DenseMap.114", %"class.std::vector.117", i8, i8, i8, i8, i8, i8, [2 x i8], i32, i32, %"class.std::vector.122", %"class.std::vector.127", %"class.std::vector.127", i32, [4 x i8], ptr, ptr, %"class.llvm::DenseMap.132", %"class.llvm::SmallVector.135", i32, [4 x i8], %"class.llvm::SmallVector.140", %"class.llvm::DenseMap.145", i8, [7 x i8] }>
%"class.std::vector.58" = type { %"struct.std::_Vector_base.59" }
%"struct.std::_Vector_base.59" = type { %"struct.std::_Vector_base<llvm::MachineBasicBlock *, std::allocator<llvm::MachineBasicBlock *>>::_Vector_impl" }
%"struct.std::_Vector_base<llvm::MachineBasicBlock *, std::allocator<llvm::MachineBasicBlock *>>::_Vector_impl" = type { %"struct.std::_Vector_base<llvm::MachineBasicBlock *, std::allocator<llvm::MachineBasicBlock *>>::_Vector_impl_data" }
%"struct.std::_Vector_base<llvm::MachineBasicBlock *, std::allocator<llvm::MachineBasicBlock *>>::_Vector_impl_data" = type { ptr, ptr, ptr }
%"class.llvm::BumpPtrAllocatorImpl" = type { ptr, ptr, %"class.llvm::SmallVector.64", %"class.llvm::SmallVector.69", i64, i64 }
%"class.llvm::SmallVector.64" = type { %"class.llvm::SmallVectorImpl.65", %"struct.llvm::SmallVectorStorage.68" }
%"class.llvm::SmallVectorImpl.65" = type { %"class.llvm::SmallVectorTemplateBase.66" }
%"class.llvm::SmallVectorTemplateBase.66" = type { %"class.llvm::SmallVectorTemplateCommon.67" }
%"class.llvm::SmallVectorTemplateCommon.67" = type { %"class.llvm::SmallVectorBase" }
%"struct.llvm::SmallVectorStorage.68" = type { [32 x i8] }
%"class.llvm::SmallVector.69" = type { %"class.llvm::SmallVectorImpl.70" }
%"class.llvm::SmallVectorImpl.70" = type { %"class.llvm::SmallVectorTemplateBase.71" }
%"class.llvm::SmallVectorTemplateBase.71" = type { %"class.llvm::SmallVectorTemplateCommon.72" }
%"class.llvm::SmallVectorTemplateCommon.72" = type { %"class.llvm::SmallVectorBase" }
%"class.llvm::Recycler" = type { ptr }
%"class.llvm::ArrayRecycler" = type { %"class.llvm::SmallVector.74" }
%"class.llvm::SmallVector.74" = type { %"class.llvm::SmallVectorImpl.75", %"struct.llvm::SmallVectorStorage.78" }
%"class.llvm::SmallVectorImpl.75" = type { %"class.llvm::SmallVectorTemplateBase.76" }
%"class.llvm::SmallVectorTemplateBase.76" = type { %"class.llvm::SmallVectorTemplateCommon.77" }
%"class.llvm::SmallVectorTemplateCommon.77" = type { %"class.llvm::SmallVectorBase" }
%"struct.llvm::SmallVectorStorage.78" = type { [64 x i8] }
%"class.llvm::Recycler.79" = type { ptr }
%"class.llvm::iplist.80" = type { %"class.llvm::iplist_impl.81" }
%"class.llvm::iplist_impl.81" = type { %"class.llvm::simple_ilist.83" }
%"class.llvm::simple_ilist.83" = type { %"class.llvm::ilist_sentinel.86" }
%"class.llvm::ilist_sentinel.86" = type { %"class.llvm::ilist_node_impl" }
%"class.std::unique_ptr.87" = type { %"struct.std::__uniq_ptr_data.88" }
%"struct.std::__uniq_ptr_data.88" = type { %"class.std::__uniq_ptr_impl.89" }
%"class.std::__uniq_ptr_impl.89" = type { %"class.std::tuple.90" }
%"class.std::tuple.90" = type { %"struct.std::_Tuple_impl.91" }
%"struct.std::_Tuple_impl.91" = type { %"struct.std::_Head_base.94" }
%"struct.std::_Head_base.94" = type { ptr }
%"class.std::vector.95" = type { %"struct.std::_Vector_base.96" }
%"struct.std::_Vector_base.96" = type { %"struct.std::_Vector_base<llvm::MCCFIInstruction, std::allocator<llvm::MCCFIInstruction>>::_Vector_impl" }
%"struct.std::_Vector_base<llvm::MCCFIInstruction, std::allocator<llvm::MCCFIInstruction>>::_Vector_impl" = type { %"struct.std::_Vector_base<llvm::MCCFIInstruction, std::allocator<llvm::MCCFIInstruction>>::_Vector_impl_data" }
%"struct.std::_Vector_base<llvm::MCCFIInstruction, std::allocator<llvm::MCCFIInstruction>>::_Vector_impl_data" = type { ptr, ptr, ptr }
%"class.std::vector.100" = type { %"struct.std::_Vector_base.101" }
%"struct.std::_Vector_base.101" = type { %"struct.std::_Vector_base<llvm::MCSymbol *, std::allocator<llvm::MCSymbol *>>::_Vector_impl" }
%"struct.std::_Vector_base<llvm::MCSymbol *, std::allocator<llvm::MCSymbol *>>::_Vector_impl" = type { %"struct.std::_Vector_base<llvm::MCSymbol *, std::allocator<llvm::MCSymbol *>>::_Vector_impl_data" }
%"struct.std::_Vector_base<llvm::MCSymbol *, std::allocator<llvm::MCSymbol *>>::_Vector_impl_data" = type { ptr, ptr, ptr }
%"class.std::vector.105" = type { %"struct.std::_Vector_base.106" }
%"struct.std::_Vector_base.106" = type { %"struct.std::_Vector_base<llvm::LandingPadInfo, std::allocator<llvm::LandingPadInfo>>::_Vector_impl" }
%"struct.std::_Vector_base<llvm::LandingPadInfo, std::allocator<llvm::LandingPadInfo>>::_Vector_impl" = type { %"struct.std::_Vector_base<llvm::LandingPadInfo, std::allocator<llvm::LandingPadInfo>>::_Vector_impl_data" }
%"struct.std::_Vector_base<llvm::LandingPadInfo, std::allocator<llvm::LandingPadInfo>>::_Vector_impl_data" = type { ptr, ptr, ptr }
%"class.llvm::DenseMap" = type <{ ptr, i32, i32, i32, [4 x i8] }>
%"class.llvm::DenseMap.111" = type <{ ptr, i32, i32, i32, [4 x i8] }>
%"class.llvm::DenseMap.114" = type <{ ptr, i32, i32, i32, [4 x i8] }>
%"class.std::vector.117" = type { %"struct.std::_Vector_base.118" }
%"struct.std::_Vector_base.118" = type { %"struct.std::_Vector_base<std::pair<llvm::MCSymbol *, llvm::MDNode *>, std::allocator<std::pair<llvm::MCSymbol *, llvm::MDNode *>>>::_Vector_impl" }
%"struct.std::_Vector_base<std::pair<llvm::MCSymbol *, llvm::MDNode *>, std::allocator<std::pair<llvm::MCSymbol *, llvm::MDNode *>>>::_Vector_impl" = type { %"struct.std::_Vector_base<std::pair<llvm::MCSymbol *, llvm::MDNode *>, std::allocator<std::pair<llvm::MCSymbol *, llvm::MDNode *>>>::_Vector_impl_data" }
%"struct.std::_Vector_base<std::pair<llvm::MCSymbol *, llvm::MDNode *>, std::allocator<std::pair<llvm::MCSymbol *, llvm::MDNode *>>>::_Vector_impl_data" = type { ptr, ptr, ptr }
%"class.std::vector.122" = type { %"struct.std::_Vector_base.123" }
%"struct.std::_Vector_base.123" = type { %"struct.std::_Vector_base<const llvm::GlobalValue *, std::allocator<const llvm::GlobalValue *>>::_Vector_impl" }
%"struct.std::_Vector_base<const llvm::GlobalValue *, std::allocator<const llvm::GlobalValue *>>::_Vector_impl" = type { %"struct.std::_Vector_base<const llvm::GlobalValue *, std::allocator<const llvm::GlobalValue *>>::_Vector_impl_data" }
%"struct.std::_Vector_base<const llvm::GlobalValue *, std::allocator<const llvm::GlobalValue *>>::_Vector_impl_data" = type { ptr, ptr, ptr }
%"class.std::vector.127" = type { %"struct.std::_Vector_base.128" }
%"struct.std::_Vector_base.128" = type { %"struct.std::_Vector_base<unsigned int, std::allocator<unsigned int>>::_Vector_impl" }
%"struct.std::_Vector_base<unsigned int, std::allocator<unsigned int>>::_Vector_impl" = type { %"struct.std::_Vector_base<unsigned int, std::allocator<unsigned int>>::_Vector_impl_data" }
%"struct.std::_Vector_base<unsigned int, std::allocator<unsigned int>>::_Vector_impl_data" = type { ptr, ptr, ptr }
%"class.llvm::DenseMap.132" = type <{ ptr, i32, i32, i32, [4 x i8] }>
%"class.llvm::SmallVector.135" = type { %"class.llvm::SmallVectorImpl.136", %"struct.llvm::SmallVectorStorage.139" }
%"class.llvm::SmallVectorImpl.136" = type { %"class.llvm::SmallVectorTemplateBase.137" }
%"class.llvm::SmallVectorTemplateBase.137" = type { %"class.llvm::SmallVectorTemplateCommon.138" }
%"class.llvm::SmallVectorTemplateCommon.138" = type { %"class.llvm::SmallVectorBase" }
%"struct.llvm::SmallVectorStorage.139" = type { [128 x i8] }
%"class.llvm::SmallVector.140" = type { %"class.llvm::SmallVectorImpl.141", %"struct.llvm::SmallVectorStorage.144" }
%"class.llvm::SmallVectorImpl.141" = type { %"class.llvm::SmallVectorTemplateBase.142" }
%"class.llvm::SmallVectorTemplateBase.142" = type { %"class.llvm::SmallVectorTemplateCommon.143" }
%"class.llvm::SmallVectorTemplateCommon.143" = type { %"class.llvm::SmallVectorBase" }
%"struct.llvm::SmallVectorStorage.144" = type { [160 x i8] }
%"class.llvm::DenseMap.145" = type <{ ptr, i32, i32, i32, [4 x i8] }>

; Function Attrs: mustprogress nounwind uwtable
define linkonce_odr hidden noundef ptr @_ZNK4llvm25SmallVectorTemplateCommonISt10unique_ptrINS_15DomTreeNodeBaseINS_17MachineBasicBlockEEESt14default_deleteIS4_EEvE10getFirstElEv(ptr noundef nonnull align 8 dereferenceable(16) %0) #0 comdat align 2 {
  %2 = alloca ptr, align 8
  store ptr %0, ptr %2, align 8
  %3 = load ptr, ptr %2, align 8
  %4 = getelementptr inbounds i8, ptr %3, i64 16
  ret ptr %4
}

; Function Attrs: mustprogress nounwind uwtable
define linkonce_odr hidden noundef ptr @_ZNK4llvm25SmallVectorTemplateCommonIPNS_17MachineBasicBlockEvE10getFirstElEv(ptr noundef nonnull align 8 dereferenceable(16) %0) #0 comdat align 2 {
  %2 = alloca ptr, align 8
  store ptr %0, ptr %2, align 8
  %3 = load ptr, ptr %2, align 8
  %4 = getelementptr inbounds i8, ptr %3, i64 16
  ret ptr %4
}

; Function Attrs: mustprogress nounwind uwtable
define linkonce_odr hidden void @_ZN4llvm25SmallVectorTemplateCommonISt10unique_ptrINS_15DomTreeNodeBaseINS_17MachineBasicBlockEEESt14default_deleteIS4_EEvEC2Em(ptr noundef nonnull align 8 dereferenceable(16) %0, i64 noundef %1) unnamed_addr #0 comdat align 2 {
  %3 = alloca ptr, align 8
  %4 = alloca i64, align 8
  store ptr %0, ptr %3, align 8
  store i64 %1, ptr %4, align 8
  %5 = load ptr, ptr %3, align 8
  %6 = call noundef ptr @_ZNK4llvm25SmallVectorTemplateCommonISt10unique_ptrINS_15DomTreeNodeBaseINS_17MachineBasicBlockEEESt14default_deleteIS4_EEvE10getFirstElEv(ptr noundef nonnull align 8 dereferenceable(16) %5)
  %7 = load i64, ptr %4, align 8
  call void @_ZN4llvm15SmallVectorBaseIjEC2EPvm(ptr noundef nonnull align 8 dereferenceable(16) %5, ptr noundef %6, i64 noundef %7)
  ret void
}

; Function Attrs: mustprogress nounwind uwtable
define linkonce_odr hidden void @_ZN4llvm25SmallVectorTemplateCommonIPNS_17MachineBasicBlockEvEC2Em(ptr noundef nonnull align 8 dereferenceable(16) %0, i64 noundef %1) unnamed_addr #0 comdat align 2 {
  %3 = alloca ptr, align 8
  %4 = alloca i64, align 8
  store ptr %0, ptr %3, align 8
  store i64 %1, ptr %4, align 8
  %5 = load ptr, ptr %3, align 8
  %6 = call noundef ptr @_ZNK4llvm25SmallVectorTemplateCommonIPNS_17MachineBasicBlockEvE10getFirstElEv(ptr noundef nonnull align 8 dereferenceable(16) %5)
  %7 = load i64, ptr %4, align 8
  call void @_ZN4llvm15SmallVectorBaseIjEC2EPvm(ptr noundef nonnull align 8 dereferenceable(16) %5, ptr noundef %6, i64 noundef %7)
  ret void
}

; Function Attrs: mustprogress nounwind uwtable
define linkonce_odr hidden noundef i32 @_ZNK4llvm15MachineFunction19getBlockNumberEpochEv(ptr noundef nonnull align 8 dereferenceable(1041) %0) #0 comdat align 2 {
  %2 = alloca ptr, align 8
  store ptr %0, ptr %2, align 8
  %3 = load ptr, ptr %2, align 8
  %4 = getelementptr inbounds nuw %"class.llvm::MachineFunction", ptr %3, i32 0, i32 13
  %5 = load i32, ptr %4, align 8
  ret i32 %5
}

; Function Attrs: mustprogress nounwind uwtable
define linkonce_odr hidden void @_ZN4llvm23SmallVectorTemplateBaseISt10unique_ptrINS_15DomTreeNodeBaseINS_17MachineBasicBlockEEESt14default_deleteIS4_EELb0EEC2Em(ptr noundef nonnull align 8 dereferenceable(16) %0, i64 noundef %1) unnamed_addr #0 comdat align 2 {
  %3 = alloca ptr, align 8
  %4 = alloca i64, align 8
  store ptr %0, ptr %3, align 8
  store i64 %1, ptr %4, align 8
  %5 = load ptr, ptr %3, align 8
  %6 = load i64, ptr %4, align 8
  call void @_ZN4llvm25SmallVectorTemplateCommonISt10unique_ptrINS_15DomTreeNodeBaseINS_17MachineBasicBlockEEESt14default_deleteIS4_EEvEC2Em(ptr noundef nonnull align 8 dereferenceable(16) %5, i64 noundef %6)
  ret void
}

; Function Attrs: mustprogress nounwind uwtable
define linkonce_odr hidden void @_ZN4llvm23SmallVectorTemplateBaseIPNS_17MachineBasicBlockELb1EEC2Em(ptr noundef nonnull align 8 dereferenceable(16) %0, i64 noundef %1) unnamed_addr #0 comdat align 2 {
  %3 = alloca ptr, align 8
  %4 = alloca i64, align 8
  store ptr %0, ptr %3, align 8
  store i64 %1, ptr %4, align 8
  %5 = load ptr, ptr %3, align 8
  %6 = load i64, ptr %4, align 8
  call void @_ZN4llvm25SmallVectorTemplateCommonIPNS_17MachineBasicBlockEvEC2Em(ptr noundef nonnull align 8 dereferenceable(16) %5, i64 noundef %6)
  ret void
}

; Function Attrs: mustprogress nounwind uwtable
define linkonce_odr hidden noundef i32 @_ZN4llvm11GraphTraitsIPNS_15MachineFunctionEE14getNumberEpochES2_(ptr noundef %0) #0 comdat align 2 {
  %2 = alloca ptr, align 8
  store ptr %0, ptr %2, align 8
  %3 = load ptr, ptr %2, align 8
  %4 = call noundef i32 @_ZNK4llvm15MachineFunction19getBlockNumberEpochEv(ptr noundef nonnull align 8 dereferenceable(1041) %3)
  ret i32 %4
}

; Function Attrs: mustprogress nounwind uwtable
define linkonce_odr hidden void @_ZN4llvm15SmallVectorImplISt10unique_ptrINS_15DomTreeNodeBaseINS_17MachineBasicBlockEEESt14default_deleteIS4_EEEC2Ej(ptr noundef nonnull align 8 dereferenceable(16) %0, i32 noundef %1) unnamed_addr #0 comdat align 2 {
  %3 = alloca ptr, align 8
  %4 = alloca i32, align 4
  store ptr %0, ptr %3, align 8
  store i32 %1, ptr %4, align 4
  %5 = load ptr, ptr %3, align 8
  %6 = load i32, ptr %4, align 4
  %7 = zext i32 %6 to i64
  call void @_ZN4llvm23SmallVectorTemplateBaseISt10unique_ptrINS_15DomTreeNodeBaseINS_17MachineBasicBlockEEESt14default_deleteIS4_EELb0EEC2Em(ptr noundef nonnull align 8 dereferenceable(16) %5, i64 noundef %7)
  ret void
}

; Function Attrs: mustprogress nounwind uwtable
define linkonce_odr hidden void @_ZN4llvm15SmallVectorImplIPNS_17MachineBasicBlockEEC2Ej(ptr noundef nonnull align 8 dereferenceable(16) %0, i32 noundef %1) unnamed_addr #0 comdat align 2 {
  %3 = alloca ptr, align 8
  %4 = alloca i32, align 4
  store ptr %0, ptr %3, align 8
  store i32 %1, ptr %4, align 4
  %5 = load ptr, ptr %3, align 8
  %6 = load i32, ptr %4, align 4
  %7 = zext i32 %6 to i64
  call void @_ZN4llvm23SmallVectorTemplateBaseIPNS_17MachineBasicBlockELb1EEC2Em(ptr noundef nonnull align 8 dereferenceable(16) %5, i64 noundef %7)
  ret void
}

; Function Attrs: mustprogress nounwind uwtable
define weak_odr void @_ZN4llvm14DomTreeBuilder9CalculateINS_17DominatorTreeBaseINS_17MachineBasicBlockELb1EEEEEvRT_(ptr noundef nonnull align 8 dereferenceable(148) %0) #0 comdat {
  %2 = alloca ptr, align 8
  store ptr %0, ptr %2, align 8
  %3 = load ptr, ptr %2, align 8
  call void @_ZN4llvm14DomTreeBuilder11SemiNCAInfoINS_17DominatorTreeBaseINS_17MachineBasicBlockELb1EEEE20CalculateFromScratchERS4_PNS5_15BatchUpdateInfoE(ptr noundef nonnull align 8 dereferenceable(148) %3, ptr noundef null)
  ret void
}

; Function Attrs: mustprogress nounwind uwtable
define weak_odr void @_ZN4llvm17DominatorTreeBaseINS_17MachineBasicBlockELb1EE22updateBlockNumberEpochEv(ptr noundef nonnull align 8 dereferenceable(148) %0) #0 comdat align 2 {
  %2 = alloca ptr, align 8
  store ptr %0, ptr %2, align 8
  %3 = load ptr, ptr %2, align 8
  %4 = getelementptr inbounds nuw %"class.llvm::DominatorTreeBase", ptr %3, i32 0, i32 4
  %5 = load ptr, ptr %4, align 8
  %6 = call noundef i32 @_ZN4llvm11GraphTraitsIPNS_15MachineFunctionEE14getNumberEpochES2_(ptr noundef %5)
  %7 = getelementptr inbounds nuw %"class.llvm::DominatorTreeBase", ptr %3, i32 0, i32 8
  store i32 %6, ptr %7, align 8
  ret void
}

; Function Attrs: mustprogress nounwind uwtable
define linkonce_odr hidden void @_ZN4llvm11SmallVectorISt10unique_ptrINS_15DomTreeNodeBaseINS_17MachineBasicBlockEEESt14default_deleteIS4_EELj6EEC2Ev(ptr noundef nonnull align 8 dereferenceable(64) %0) unnamed_addr #0 comdat align 2 {
  %2 = alloca ptr, align 8
  store ptr %0, ptr %2, align 8
  %3 = load ptr, ptr %2, align 8
  call void @_ZN4llvm15SmallVectorImplISt10unique_ptrINS_15DomTreeNodeBaseINS_17MachineBasicBlockEEESt14default_deleteIS4_EEEC2Ej(ptr noundef nonnull align 8 dereferenceable(16) %3, i32 noundef 6)
  ret void
}

; Function Attrs: mustprogress nounwind uwtable
define linkonce_odr hidden void @_ZN4llvm11SmallVectorIPNS_17MachineBasicBlockELj4EEC2Ev(ptr noundef nonnull align 8 dereferenceable(48) %0) unnamed_addr #0 comdat align 2 {
  %2 = alloca ptr, align 8
  store ptr %0, ptr %2, align 8
  %3 = load ptr, ptr %2, align 8
  call void @_ZN4llvm15SmallVectorImplIPNS_17MachineBasicBlockEEC2Ej(ptr noundef nonnull align 8 dereferenceable(16) %3, i32 noundef 4)
  ret void
}

; Function Attrs: mustprogress nounwind uwtable
define weak_odr void @_ZN4llvm17DominatorTreeBaseINS_17MachineBasicBlockELb1EE11recalculateERNS_15MachineFunctionE(ptr noundef nonnull align 8 dereferenceable(148) %0, ptr noundef nonnull align 8 dereferenceable(1041) %1) #0 comdat align 2 {
  %3 = alloca ptr, align 8
  %4 = alloca ptr, align 8
  store ptr %0, ptr %3, align 8
  store ptr %1, ptr %4, align 8
  %5 = load ptr, ptr %3, align 8
  %6 = load ptr, ptr %4, align 8
  %7 = getelementptr inbounds nuw %"class.llvm::DominatorTreeBase", ptr %5, i32 0, i32 4
  store ptr %6, ptr %7, align 8
  call void @_ZN4llvm17DominatorTreeBaseINS_17MachineBasicBlockELb1EE22updateBlockNumberEpochEv(ptr noundef nonnull align 8 dereferenceable(148) %5)
  call void @_ZN4llvm14DomTreeBuilder9CalculateINS_17DominatorTreeBaseINS_17MachineBasicBlockELb1EEEEEvRT_(ptr noundef nonnull align 8 dereferenceable(148) %5)
  ret void
}

; Function Attrs: mustprogress nounwind uwtable
define linkonce_odr void @_ZN4llvm17DominatorTreeBaseINS_17MachineBasicBlockELb1EEC2Ev(ptr noundef nonnull align 8 dereferenceable(148) %0) unnamed_addr #0 comdat align 2 {
  %2 = alloca ptr, align 8
  store ptr %0, ptr %2, align 8
  %3 = load ptr, ptr %2, align 8
  %4 = getelementptr inbounds nuw %"class.llvm::DominatorTreeBase", ptr %3, i32 0, i32 0
  call void @_ZN4llvm11SmallVectorIPNS_17MachineBasicBlockELj4EEC2Ev(ptr noundef nonnull align 8 dereferenceable(48) %4)
  %5 = getelementptr inbounds nuw %"class.llvm::DominatorTreeBase", ptr %3, i32 0, i32 1
  call void @_ZN4llvm11SmallVectorISt10unique_ptrINS_15DomTreeNodeBaseINS_17MachineBasicBlockEEESt14default_deleteIS4_EELj6EEC2Ev(ptr noundef nonnull align 8 dereferenceable(64) %5)
  %6 = getelementptr inbounds nuw %"class.llvm::DominatorTreeBase", ptr %3, i32 0, i32 3
  store ptr null, ptr %6, align 8
  %7 = getelementptr inbounds nuw %"class.llvm::DominatorTreeBase", ptr %3, i32 0, i32 4
  store ptr null, ptr %7, align 8
  %8 = getelementptr inbounds nuw %"class.llvm::DominatorTreeBase", ptr %3, i32 0, i32 5
  store i8 0, ptr %8, align 8
  %9 = getelementptr inbounds nuw %"class.llvm::DominatorTreeBase", ptr %3, i32 0, i32 7
  store i32 0, ptr %9, align 4
  %10 = getelementptr inbounds nuw %"class.llvm::DominatorTreeBase", ptr %3, i32 0, i32 8
  store i32 0, ptr %10, align 8
  ret void
}

; Function Attrs: mustprogress nounwind uwtable
define linkonce_odr hidden void @_ZN4llvm24MachinePostDominatorTreeC2ERNS_15MachineFunctionE(ptr noundef nonnull align 8 dereferenceable(148) %0, ptr noundef nonnull align 8 dereferenceable(1041) %1) unnamed_addr #0 comdat align 2 {
  %3 = alloca ptr, align 8
  %4 = alloca ptr, align 8
  store ptr %0, ptr %3, align 8
  store ptr %1, ptr %4, align 8
  %5 = load ptr, ptr %3, align 8
  call void @_ZN4llvm17DominatorTreeBaseINS_17MachineBasicBlockELb1EEC2Ev(ptr noundef nonnull align 8 dereferenceable(148) %5)
  %6 = load ptr, ptr %4, align 8
  call void @_ZN4llvm17DominatorTreeBaseINS_17MachineBasicBlockELb1EE11recalculateERNS_15MachineFunctionE(ptr noundef nonnull align 8 dereferenceable(148) %5, ptr noundef nonnull align 8 dereferenceable(1041) %6)
  ret void
}

; Function Attrs: mustprogress nounwind uwtable
define dso_local void @_ZN4llvm32MachinePostDominatorTreeAnalysis3runERNS_15MachineFunctionERNS_15AnalysisManagerIS1_JEEE(ptr dead_on_unwind noalias writable sret(%"class.llvm::MachinePostDominatorTree") align 8 %0, ptr noundef nonnull align 1 dereferenceable(1) %1, ptr noundef nonnull align 8 dereferenceable(1041) %2, ptr noundef nonnull align 8 dereferenceable(72) %3) #0 align 2 {
  %5 = alloca ptr, align 8
  %6 = alloca ptr, align 8
  %7 = alloca ptr, align 8
  %8 = alloca ptr, align 8
  store ptr %0, ptr %5, align 8
  store ptr %1, ptr %6, align 8
  store ptr %2, ptr %7, align 8
  store ptr %3, ptr %8, align 8
  %9 = load ptr, ptr %7, align 8
  call void @_ZN4llvm24MachinePostDominatorTreeC2ERNS_15MachineFunctionE(ptr noundef nonnull align 8 dereferenceable(148) %0, ptr noundef nonnull align 8 dereferenceable(1041) %9)
  ret void
}