; Function Attrs: mustprogress nounwind uwtable
define dso_local void @_ZN4llvm32MachinePostDominatorTreeAnalysis3runERNS_15MachineFunctionERNS_15AnalysisManagerIS1_JEEE(ptr dead_on_unwind noalias nonnull writable sret(%"class.llvm::MachinePostDominatorTree") align 8 %0, ptr noundef nonnull readnone align 1 captures(none) dereferenceable(1) %1, ptr noundef nonnull align 8 dereferenceable(1041) %2, ptr noundef nonnull readnone align 8 captures(none) dereferenceable(72) %3) local_unnamed_addr #0 align 2 {
  %5 = getelementptr inbounds nuw i8, ptr %0, i64 16
  tail call void @_ZN4llvm15SmallVectorBaseIjEC2EPvm(ptr noundef nonnull align 8 dereferenceable(148) %0, ptr noundef nonnull %5, i64 noundef 4) #14
  %6 = getelementptr inbounds nuw i8, ptr %0, i64 48
  %7 = getelementptr inbounds nuw i8, ptr %0, i64 64
  tail call void @_ZN4llvm15SmallVectorBaseIjEC2EPvm(ptr noundef nonnull align 8 dereferenceable(64) %6, ptr noundef nonnull %7, i64 noundef 6) #14
  %8 = getelementptr inbounds nuw i8, ptr %0, i64 120
  %9 = getelementptr inbounds nuw i8, ptr %0, i64 140
  store i32 0, ptr %9, align 4
  %10 = getelementptr inbounds nuw i8, ptr %0, i64 144
  tail call void @llvm.memset.p0.i64(ptr noundef nonnull align 8 dereferenceable(17) %8, i8 0, i64 17, i1 false)
  %11 = getelementptr inbounds nuw i8, ptr %0, i64 128
  store ptr %2, ptr %11, align 8
  %12 = getelementptr inbounds nuw i8, ptr %2, i64 120
  %13 = load i32, ptr %12, align 8
  store i32 %13, ptr %10, align 8
  tail call void @_ZN4llvm14DomTreeBuilder11SemiNCAInfoINS_17DominatorTreeBaseINS_17MachineBasicBlockELb1EEEE20CalculateFromScratchERS4_PNS5_15BatchUpdateInfoE(ptr noundef nonnull align 8 dereferenceable(148) %0, ptr noundef null)
  ret void
}